target datalayout = "e-m:e-p270:32:32-p271:32:32-p272:64:64-i64:64-i128:128-f80:128-n8:16:32:64-S128"
target triple = "x86_64-pc-linux-gnu"

%struct.OSSL_TIME = type { i64 }
%struct.ssl_st = type { i32, ptr, ptr, ptr, %struct.CRYPTO_REF_COUNT, ptr, %struct.crypto_ex_data_st }
%struct.CRYPTO_REF_COUNT = type { i32 }
%struct.crypto_ex_data_st = type { ptr, ptr }
%struct.ssl_connection_st = type { %struct.ssl_st, ptr, i32, ptr, ptr, ptr, i32, ptr, i32, i32, i32, i32, %struct.OSSL_TIME, %struct.OSSL_TIME, %struct.ossl_statem_st, i32, ptr, ptr, i64, i64, i64, %struct.ossl_quic_tls_callbacks_st, ptr, ptr, %struct.anon, ptr, ptr, ptr, i32, ptr, %struct.ssl_dane_st, ptr, ptr, ptr, ptr, i32, [64 x i8], [64 x i8], [64 x i8], [64 x i8], [64 x i8], [64 x i8], [64 x i8], [64 x i8], [64 x i8], [64 x i8], [64 x i8], [64 x i8], ptr, [64 x i8], i64, i32, i64, [32 x i8], ptr, ptr, ptr, i64, ptr, [32 x i8], i64, i32, ptr, ptr, i32, i32, ptr, ptr, ptr, ptr, ptr, i64, ptr, ptr, i64, i32, i32, i32, i64, i32, i32, i64, i64, i64, %struct.anon.1, ptr, i32, ptr, ptr, ptr, i32, ptr, ptr, ptr, i32, i32, i32, i32, ptr, i64, i32, ptr, %struct.srp_ctx_st, ptr, %struct.record_layer_st, ptr, ptr, ptr, ptr, i64, i32, i32, i32, i64, i64, i64, ptr, ptr, ptr, ptr, ptr, i64, ptr, i64, ptr, i64 }
%struct.ossl_statem_st = type { i32, i32, i32, i32, i32, i32, i32, i32, i32, i32, i32, i32, i32, ptr, ptr, ptr, i8 }
%struct.ossl_quic_tls_callbacks_st = type { ptr, ptr, ptr, ptr, ptr, ptr }
%struct.anon = type { i64, [32 x i8], [32 x i8], ptr, ptr, i32, i32, i32, i32, [2 x i8], i32, i32, i32, i32, %struct.anon.0, [64 x i8], i64, [64 x i8], i64, i32, i32, ptr, i64, ptr, i64, i32, i8, i8, i16, ptr, i16 }
%struct.anon.0 = type { [128 x i8], i64, [128 x i8], i64, i64, i32, ptr, ptr, [4 x ptr], [4 x i16], i64, i32, ptr, i64, ptr, i64, ptr, ptr, ptr, i32, i64, ptr, i32, ptr, i64, ptr, i64, ptr, i64, ptr, ptr, ptr, ptr, i64, i64, ptr, ptr, i32, i32, i32, i32 }
%struct.ssl_dane_st = type { ptr, ptr, ptr, ptr, ptr, i32, i32, i32, i64 }
%struct.anon.1 = type { [29 x i8], ptr, ptr, ptr, i32, ptr, i16, i32, %struct.anon.2, i32, i32, i64, ptr, i64, ptr, i64, ptr, i64, ptr, i64, ptr, i64, ptr, ptr, ptr, ptr, ptr, ptr, ptr, i64, ptr, i64, i32, i32, i32, i32, ptr, i64, i32, i8, i32, [4 x i32], i32, i8, i8, i8, i8 }
%struct.anon.2 = type { ptr, ptr, ptr, i64 }
%struct.srp_ctx_st = type { ptr, ptr, ptr, ptr, ptr, ptr, ptr, ptr, ptr, ptr, ptr, ptr, ptr, ptr, i32, i64 }
%struct.record_layer_st = type { ptr, ptr, ptr, ptr, ptr, ptr, ptr, ptr, i64, i32, i64, [4 x i8], i64, i64, i8, ptr, i32, ptr, ptr, ptr, i64, i64, i64, i64, [32 x %struct.tls_record_st] }
%struct.tls_record_st = type { ptr, i32, i8, ptr, ptr, i64, i64, i16, [8 x i8] }
%struct.ssl_ctx_st = type { ptr, ptr, ptr, ptr, ptr, ptr, ptr, i64, ptr, ptr, i32, %struct.OSSL_TIME, ptr, ptr, ptr, %struct.anon.3, %struct.CRYPTO_REF_COUNT, ptr, ptr, ptr, ptr, ptr, ptr, ptr, ptr, ptr, %struct.crypto_ex_data_st, ptr, ptr, ptr, ptr, ptr, ptr, ptr, i64, i32, i32, i32, i64, ptr, ptr, i32, ptr, ptr, i32, i64, [32 x i8], ptr, ptr, ptr, i32, ptr, ptr, ptr, i64, i64, i64, i64, ptr, ptr, ptr, ptr, ptr, %struct.anon.4, ptr, ptr, ptr, ptr, %struct.srp_ctx_st, %struct.dane_ctx_st, ptr, ptr, ptr, ptr, i32, i32, ptr, ptr, i64, i64, ptr, ptr, ptr, i64, ptr, ptr, i32, ptr, ptr, ptr, [14 x i32], [24 x ptr], [14 x ptr], [14 x i64], i64, ptr, ptr, ptr, i64, i64, ptr, i64, i64, i32, i32, i32, i32, ptr, i64, ptr, i64, i64, ptr, ptr }
%struct.anon.3 = type { i32, i32, i32, i32, i32, i32, i32, i32, i32, i32, i32 }
%struct.anon.4 = type { ptr, ptr, [16 x i8], ptr, ptr, ptr, ptr, ptr, i32, i8, i64, ptr, i64, ptr, i64, ptr, i64, ptr, ptr, i64, ptr, ptr, ptr, i64, ptr, ptr, ptr, ptr, [32 x i8] }
%struct.dane_ctx_st = type { ptr, ptr, i8, i64 }
%struct.cert_st = type { ptr, ptr, ptr, i32, i32, ptr, i64, ptr, i64, ptr, i64, ptr, i64, ptr, ptr, ptr, ptr, %struct.custom_ext_methods, ptr, i32, ptr, ptr, %struct.CRYPTO_REF_COUNT }
%struct.custom_ext_methods = type { ptr, i64 }

@suiteb_sigalgs = internal constant [2 x i16] [i16 1027, i16 1283], align 2

; Function Attrs: nounwind uwtable
define i64 @tls12_get_psigalgs(ptr noundef %0, i32 noundef %1, ptr noundef %2) #1 {
  %4 = alloca i64, align 8
  %5 = alloca ptr, align 8
  %6 = alloca i32, align 4
  %7 = alloca ptr, align 8
  store ptr %0, ptr %5, align 8, !tbaa !25
  store i32 %1, ptr %6, align 4, !tbaa !128
  store ptr %2, ptr %7, align 8, !tbaa !134
  %8 = load ptr, ptr %5, align 8, !tbaa !25
  %9 = getelementptr inbounds nuw %struct.ssl_connection_st, ptr %8, i32 0, i32 48
  %10 = load ptr, ptr %9, align 8, !tbaa !138
  %11 = getelementptr inbounds nuw %struct.cert_st, ptr %10, i32 0, i32 4
  %12 = load i32, ptr %11, align 4, !tbaa !139
  %13 = and i32 %12, 196608
  switch i32 %13, label %20 [
    i32 196608, label %14
    i32 65536, label %16
    i32 131072, label %18
  ]

14:                                               ; preds = %3
  %15 = load ptr, ptr %7, align 8, !tbaa !134
  store ptr @suiteb_sigalgs, ptr %15, align 8, !tbaa !142
  store i64 2, ptr %4, align 8
  br label %78

16:                                               ; preds = %3
  %17 = load ptr, ptr %7, align 8, !tbaa !134
  store ptr @suiteb_sigalgs, ptr %17, align 8, !tbaa !142
  store i64 1, ptr %4, align 8
  br label %78

18:                                               ; preds = %3
  %19 = load ptr, ptr %7, align 8, !tbaa !134
  store ptr getelementptr inbounds (i16, ptr @suiteb_sigalgs, i64 1), ptr %19, align 8, !tbaa !142
  store i64 1, ptr %4, align 8
  br label %78

20:                                               ; preds = %3
  %21 = load ptr, ptr %5, align 8, !tbaa !25
  %22 = getelementptr inbounds nuw %struct.ssl_connection_st, ptr %21, i32 0, i32 8
  %23 = load i32, ptr %22, align 8, !tbaa !173
  %24 = load i32, ptr %6, align 4, !tbaa !128
  %25 = icmp eq i32 %23, %24
  br i1 %25, label %26, label %45

26:                                               ; preds = %20
  %27 = load ptr, ptr %5, align 8, !tbaa !25
  %28 = getelementptr inbounds nuw %struct.ssl_connection_st, ptr %27, i32 0, i32 48
  %29 = load ptr, ptr %28, align 8, !tbaa !138
  %30 = getelementptr inbounds nuw %struct.cert_st, ptr %29, i32 0, i32 11
  %31 = load ptr, ptr %30, align 8, !tbaa !240
  %32 = icmp ne ptr %31, null
  br i1 %32, label %33, label %45

33:                                               ; preds = %26
  %34 = load ptr, ptr %5, align 8, !tbaa !25
  %35 = getelementptr inbounds nuw %struct.ssl_connection_st, ptr %34, i32 0, i32 48
  %36 = load ptr, ptr %35, align 8, !tbaa !138
  %37 = getelementptr inbounds nuw %struct.cert_st, ptr %36, i32 0, i32 11
  %38 = load ptr, ptr %37, align 8, !tbaa !240
  %39 = load ptr, ptr %7, align 8, !tbaa !134
  store ptr %38, ptr %39, align 8, !tbaa !142
  %40 = load ptr, ptr %5, align 8, !tbaa !25
  %41 = getelementptr inbounds nuw %struct.ssl_connection_st, ptr %40, i32 0, i32 48
  %42 = load ptr, ptr %41, align 8, !tbaa !138
  %43 = getelementptr inbounds nuw %struct.cert_st, ptr %42, i32 0, i32 12
  %44 = load i64, ptr %43, align 8, !tbaa !241
  store i64 %44, ptr %4, align 8
  br label %78

45:                                               ; preds = %26, %20
  %46 = load ptr, ptr %5, align 8, !tbaa !25
  %47 = getelementptr inbounds nuw %struct.ssl_connection_st, ptr %46, i32 0, i32 48
  %48 = load ptr, ptr %47, align 8, !tbaa !138
  %49 = getelementptr inbounds nuw %struct.cert_st, ptr %48, i32 0, i32 9
  %50 = load ptr, ptr %49, align 8, !tbaa !242
  %51 = icmp ne ptr %50, null
  br i1 %51, label %52, label %64

52:                                               ; preds = %45
  %53 = load ptr, ptr %5, align 8, !tbaa !25
  %54 = getelementptr inbounds nuw %struct.ssl_connection_st, ptr %53, i32 0, i32 48
  %55 = load ptr, ptr %54, align 8, !tbaa !138
  %56 = getelementptr inbounds nuw %struct.cert_st, ptr %55, i32 0, i32 9
  %57 = load ptr, ptr %56, align 8, !tbaa !242
  %58 = load ptr, ptr %7, align 8, !tbaa !134
  store ptr %57, ptr %58, align 8, !tbaa !142
  %59 = load ptr, ptr %5, align 8, !tbaa !25
  %60 = getelementptr inbounds nuw %struct.ssl_connection_st, ptr %59, i32 0, i32 48
  %61 = load ptr, ptr %60, align 8, !tbaa !138
  %62 = getelementptr inbounds nuw %struct.cert_st, ptr %61, i32 0, i32 10
  %63 = load i64, ptr %62, align 8, !tbaa !243
  store i64 %63, ptr %4, align 8
  br label %78

64:                                               ; preds = %45
  %65 = load ptr, ptr %5, align 8, !tbaa !25
  %66 = getelementptr inbounds nuw %struct.ssl_connection_st, ptr %65, i32 0, i32 0
  %67 = getelementptr inbounds nuw %struct.ssl_st, ptr %66, i32 0, i32 1
  %68 = load ptr, ptr %67, align 8, !tbaa !137
  %69 = getelementptr inbounds nuw %struct.ssl_ctx_st, ptr %68, i32 0, i32 96
  %70 = load ptr, ptr %69, align 8, !tbaa !225
  %71 = load ptr, ptr %7, align 8, !tbaa !134
  store ptr %70, ptr %71, align 8, !tbaa !142
  %72 = load ptr, ptr %5, align 8, !tbaa !25
  %73 = getelementptr inbounds nuw %struct.ssl_connection_st, ptr %72, i32 0, i32 0
  %74 = getelementptr inbounds nuw %struct.ssl_st, ptr %73, i32 0, i32 1
  %75 = load ptr, ptr %74, align 8, !tbaa !137
  %76 = getelementptr inbounds nuw %struct.ssl_ctx_st, ptr %75, i32 0, i32 94
  %77 = load i64, ptr %76, align 8, !tbaa !226
  store i64 %77, ptr %4, align 8
  br label %78

78:                                               ; preds = %64, %52, %33, %18, %16, %14
  %79 = load i64, ptr %4, align 8
  ret i64 %79
}