; Function Attrs: mustprogress nofree norecurse nosync nounwind willreturn memory(read, argmem: readwrite, inaccessiblemem: none) uwtable
define i64 @tls12_get_psigalgs(ptr noundef readonly captures(none) %0, i32 noundef %1, ptr noundef writeonly captures(none) %2) local_unnamed_addr #7 {
  %4 = getelementptr inbounds nuw i8, ptr %0, i64 2176
  %5 = load ptr, ptr %4, align 8, !tbaa !127
  %6 = getelementptr inbounds nuw i8, ptr %5, i64 28
  %7 = load i32, ptr %6, align 4, !tbaa !128
  %8 = lshr i32 %7, 16
  %9 = and i32 %8, 3
  switch i32 %9, label %default.unreachable [
    i32 3, label %10
    i32 1, label %11
    i32 2, label %12
    i32 0, label %13
  ]

10:                                               ; preds = %3
  store ptr @suiteb_sigalgs, ptr %2, align 8, !tbaa !131
  br label %36

11:                                               ; preds = %3
  store ptr @suiteb_sigalgs, ptr %2, align 8, !tbaa !131
  br label %36

12:                                               ; preds = %3
  store ptr getelementptr inbounds nuw (i8, ptr @suiteb_sigalgs, i64 2), ptr %2, align 8, !tbaa !131
  br label %36

default.unreachable:                              ; preds = %3
  unreachable

13:                                               ; preds = %3
  %14 = getelementptr inbounds nuw i8, ptr %0, i64 120
  %15 = load i32, ptr %14, align 8, !tbaa !151
  %16 = icmp eq i32 %15, %1
  br i1 %16, label %17, label %23

17:                                               ; preds = %13
  %18 = getelementptr inbounds nuw i8, ptr %5, i64 80
  %19 = load ptr, ptr %18, align 8, !tbaa !207
  %.not = icmp eq ptr %19, null
  br i1 %.not, label %23, label %20

20:                                               ; preds = %17
  store ptr %19, ptr %2, align 8, !tbaa !131
  %21 = getelementptr inbounds nuw i8, ptr %5, i64 88
  %22 = load i64, ptr %21, align 8, !tbaa !208
  br label %36

23:                                               ; preds = %17, %13
  %24 = getelementptr inbounds nuw i8, ptr %5, i64 64
  %25 = load ptr, ptr %24, align 8, !tbaa !209
  %.not19 = icmp eq ptr %25, null
  br i1 %.not19, label %29, label %26

26:                                               ; preds = %23
  store ptr %25, ptr %2, align 8, !tbaa !131
  %27 = getelementptr inbounds nuw i8, ptr %5, i64 72
  %28 = load i64, ptr %27, align 8, !tbaa !210
  br label %36

29:                                               ; preds = %23
  %30 = getelementptr inbounds nuw i8, ptr %0, i64 8
  %31 = load ptr, ptr %30, align 8, !tbaa !126
  %32 = getelementptr inbounds nuw i8, ptr %31, i64 1648
  %33 = load ptr, ptr %32, align 8, !tbaa !193
  store ptr %33, ptr %2, align 8, !tbaa !131
  %34 = getelementptr inbounds nuw i8, ptr %31, i64 1632
  %35 = load i64, ptr %34, align 8, !tbaa !194
  br label %36

36:                                               ; preds = %29, %26, %20, %12, %11, %10
  %.0 = phi i64 [ %22, %20 ], [ %28, %26 ], [ %35, %29 ], [ 1, %12 ], [ 1, %11 ], [ 2, %10 ]
  ret i64 %.0
}